target datalayout = "e-m:e-p270:32:32-p271:32:32-p272:64:64-i64:64-i128:128-f80:128-n8:16:32:64-S128"
target triple = "x86_64-pc-linux-gnu"

%struct.PLpgSQL_nsitem = type { i32, i32, ptr, [0 x i8] }

; Function Attrs: nounwind uwtable
define hidden ptr @plpgsql_ns_lookup_label(ptr noundef %0, ptr noundef %1) #0 {
  %3 = alloca ptr, align 8
  %4 = alloca ptr, align 8
  %5 = alloca ptr, align 8
  store ptr %0, ptr %4, align 8
  store ptr %1, ptr %5, align 8
  br label %6

6:                                                ; preds = %23, %2
  %7 = load ptr, ptr %4, align 8
  %8 = icmp ne ptr %7, null
  br i1 %8, label %9, label %27

9:                                                ; preds = %6
  %10 = load ptr, ptr %4, align 8
  %11 = getelementptr inbounds nuw %struct.PLpgSQL_nsitem, ptr %10, i32 0, i32 0
  %12 = load i32, ptr %11, align 8
  %13 = icmp eq i32 %12, 0
  br i1 %13, label %14, label %23

14:                                               ; preds = %9
  %15 = load ptr, ptr %4, align 8
  %16 = getelementptr inbounds nuw %struct.PLpgSQL_nsitem, ptr %15, i32 0, i32 3
  %17 = getelementptr inbounds [0 x i8], ptr %16, i64 0, i64 0
  %18 = load ptr, ptr %5, align 8
  %19 = call i32 @strcmp(ptr noundef %17, ptr noundef %18) #9
  %20 = icmp eq i32 %19, 0
  br i1 %20, label %21, label %23

21:                                               ; preds = %14
  %22 = load ptr, ptr %4, align 8
  store ptr %22, ptr %3, align 8
  br label %28

23:                                               ; preds = %14, %9
  %24 = load ptr, ptr %4, align 8
  %25 = getelementptr inbounds nuw %struct.PLpgSQL_nsitem, ptr %24, i32 0, i32 2
  %26 = load ptr, ptr %25, align 8
  store ptr %26, ptr %4, align 8
  br label %6, !llvm.loop !10

27:                                               ; preds = %6
  store ptr null, ptr %3, align 8
  br label %28

28:                                               ; preds = %27, %21
  %29 = load ptr, ptr %3, align 8
  ret ptr %29
}