; Function Attrs: nofree nounwind memory(read, inaccessiblemem: none) uwtable
define hidden noundef ptr @plpgsql_ns_lookup_label(ptr noundef readonly captures(address_is_null, ret: address, provenance) %0, ptr noundef readonly captures(none) %1) local_unnamed_addr #8 {
  %.not8 = icmp eq ptr %0, null
  br i1 %.not8, label %._crit_edge, label %.lr.ph

.lr.ph:                                           ; preds = %2, %9
  %.079 = phi ptr [ %11, %9 ], [ %0, %2 ]
  %3 = load i32, ptr %.079, align 8
  %4 = icmp eq i32 %3, 0
  br i1 %4, label %5, label %9

5:                                                ; preds = %.lr.ph
  %6 = getelementptr inbounds nuw i8, ptr %.079, i64 16
  %7 = tail call i32 @strcmp(ptr noundef nonnull dereferenceable(1) %6, ptr noundef nonnull dereferenceable(1) %1) #15
  %8 = icmp eq i32 %7, 0
  br i1 %8, label %._crit_edge, label %9

9:                                                ; preds = %5, %.lr.ph
  %10 = getelementptr inbounds nuw i8, ptr %.079, i64 8
  %11 = load ptr, ptr %10, align 8
  %.not = icmp eq ptr %11, null
  br i1 %.not, label %._crit_edge, label %.lr.ph, !llvm.loop !7

._crit_edge:                                      ; preds = %5, %9, %2
  %.07.lcssa = phi ptr [ null, %2 ], [ null, %9 ], [ %.079, %5 ]
  ret ptr %.07.lcssa
}